; Function Attrs: nounwind uwtable
define internal fastcc void @mbim_dissect_sys_caps_info(ptr noundef %0, ptr noundef %1, i32 noundef %2) unnamed_addr #0 {
  %4 = load i32, ptr @hf_mbim_sys_caps_info_number_of_executors, align 4
  %5 = tail call ptr @proto_tree_add_item(ptr noundef %1, i32 noundef %4, ptr noundef %0, i32 noundef %2, i32 noundef 4, i32 noundef -2147483648) #10
  %6 = add i32 %2, 4
  %7 = load i32, ptr @hf_mbim_sys_caps_info_number_of_slots, align 4
  %8 = tail call ptr @proto_tree_add_item(ptr noundef %1, i32 noundef %7, ptr noundef %0, i32 noundef %6, i32 noundef 4, i32 noundef -2147483648) #10
  %9 = add i32 %2, 8
  %10 = load i32, ptr @hf_mbim_sys_caps_info_concurrency, align 4
  %11 = tail call ptr @proto_tree_add_item(ptr noundef %1, i32 noundef %10, ptr noundef %0, i32 noundef %9, i32 noundef 4, i32 noundef -2147483648) #10
  %12 = add i32 %2, 12
  %13 = load i32, ptr @hf_mbim_sys_caps_info_modem_id, align 4
  %14 = tail call ptr @proto_tree_add_item(ptr noundef %1, i32 noundef %13, ptr noundef %0, i32 noundef %12, i32 noundef 8, i32 noundef -2147483648) #10
  ret void
}